target datalayout = "e-m:e-p270:32:32-p271:32:32-p272:64:64-i64:64-i128:128-f80:128-n8:16:32:64-S128"
target triple = "x86_64-pc-linux-gnu"

%"class.std::__cxx11::basic_string" = type { %"struct.std::__cxx11::basic_string<char>::_Alloc_hider", i64, %union.anon }
%"struct.std::__cxx11::basic_string<char>::_Alloc_hider" = type { ptr }
%union.anon = type { i64, [8 x i8] }
%"class.llvm::SmallVectorBase" = type { ptr, i32, i32 }
%"class.clang::FileID" = type { i32 }
%"class.clang::SourceLocation" = type { i32 }
%"class.llvm::StringRef" = type { ptr, i64 }
%"class.clang::FileEntryRef" = type { ptr }
%"class.std::vector.1240" = type { %"struct.std::_Vector_base.1241" }
%"struct.std::_Vector_base.1241" = type { %"struct.std::_Vector_base<std::shared_ptr<llvm::BitCodeAbbrev>, std::allocator<std::shared_ptr<llvm::BitCodeAbbrev>>>::_Vector_impl" }
%"struct.std::_Vector_base<std::shared_ptr<llvm::BitCodeAbbrev>, std::allocator<std::shared_ptr<llvm::BitCodeAbbrev>>>::_Vector_impl" = type { %"struct.std::_Vector_base<std::shared_ptr<llvm::BitCodeAbbrev>, std::allocator<std::shared_ptr<llvm::BitCodeAbbrev>>>::_Vector_impl_data" }
%"struct.std::_Vector_base<std::shared_ptr<llvm::BitCodeAbbrev>, std::allocator<std::shared_ptr<llvm::BitCodeAbbrev>>>::_Vector_impl_data" = type { ptr, ptr, ptr }
%"class.llvm::SmallVectorImpl.1343" = type { %"class.llvm::SmallVectorTemplateBase.1344" }
%"class.llvm::SmallVectorTemplateBase.1344" = type { %"class.llvm::SmallVectorTemplateCommon.1345" }
%"class.llvm::SmallVectorTemplateCommon.1345" = type { %"class.llvm::SmallVectorBase" }
%"class.llvm::BitVector" = type <{ %"class.llvm::SmallVector.1386", i32, [4 x i8] }>
%"class.llvm::SmallVector.1386" = type { %"class.llvm::SmallVectorImpl.1343", %"struct.llvm::SmallVectorStorage.1387" }
%"struct.llvm::SmallVectorStorage.1387" = type { [48 x i8] }
%"class.std::vector.1316" = type { %"struct.std::_Vector_base.1317" }
%"struct.std::_Vector_base.1317" = type { %"struct.std::_Vector_base<unsigned int, std::allocator<unsigned int>>::_Vector_impl" }
%"struct.std::_Vector_base<unsigned int, std::allocator<unsigned int>>::_Vector_impl" = type { %"struct.std::_Vector_base<unsigned int, std::allocator<unsigned int>>::_Vector_impl_data" }
%"struct.std::_Vector_base<unsigned int, std::allocator<unsigned int>>::_Vector_impl_data" = type { ptr, ptr, ptr }
%"class.llvm::SmallVectorImpl.1827" = type { %"class.llvm::SmallVectorTemplateBase.1828" }
%"class.llvm::SmallVectorTemplateBase.1828" = type { %"class.llvm::SmallVectorTemplateCommon.1829" }
%"class.llvm::SmallVectorTemplateCommon.1829" = type { %"class.llvm::SmallVectorBase" }
%"class.llvm::SmallVector.2053" = type { %"class.llvm::SmallVectorImpl.1343", %"struct.llvm::SmallVectorStorage.2054" }
%"struct.llvm::SmallVectorStorage.2054" = type { [8 x i8] }
%"class.llvm::SmallVector.2095" = type { %"class.llvm::SmallVectorImpl.1343", %"struct.llvm::SmallVectorStorage.2096" }
%"struct.llvm::SmallVectorStorage.2096" = type { [64 x i8] }
%"class.clang::serialization::ModuleFile" = type { i32, i32, %"class.std::__cxx11::basic_string", %"class.std::__cxx11::basic_string", %"class.std::__cxx11::basic_string", %"class.std::__cxx11::basic_string", %"class.std::__cxx11::basic_string", %"class.clang::FileID", %"class.std::__cxx11::basic_string", i8, i8, i8, i8, %"class.clang::FileEntryRef", %"struct.clang::ASTFileSignature", %"struct.clang::ASTFileSignature", %"class.llvm::BitVector", %"class.llvm::BitVector", i8, i32, ptr, i64, i64, i64, %"class.llvm::StringRef", %"class.llvm::BitstreamCursor", %"class.clang::SourceLocation", %"class.clang::SourceLocation", %"class.clang::SourceLocation", %"class.std::vector.2443", %"class.llvm::StringRef", %"class.llvm::BitstreamCursor", i64, ptr, %"class.std::vector.2448", %"class.std::vector.2453", i32, i64, %"class.llvm::BitstreamCursor", i64, i32, i32, i32, i64, ptr, i32, ptr, i64, ptr, ptr, %"class.std::vector.1316", %"class.llvm::BitstreamCursor", i32, i64, ptr, i32, %"class.clang::ContinuousRangeMap.2458", i64, %"class.llvm::BitstreamCursor", i64, i32, %"class.clang::ContinuousRangeMap.2458", ptr, i32, i32, ptr, i32, i32, ptr, ptr, i32, i32, %"class.clang::ContinuousRangeMap.2458", i32, ptr, i32, %"class.clang::ContinuousRangeMap.2458", ptr, ptr, %"class.llvm::BitstreamCursor", i64, i32, ptr, i32, ptr, i32, ptr, i32, %"class.llvm::SmallVector.2053", i32, ptr, i64, %"class.llvm::SmallVector.2095", %"class.llvm::SetVector.2464", %"class.llvm::SetVector.2464", %"class.llvm::SmallVector.2472" }
%"struct.clang::ASTFileSignature" = type { %"struct.std::array" }
%"struct.std::array" = type { [20 x i8] }
%"class.std::vector.2443" = type { %"struct.std::_Vector_base.2444" }
%"struct.std::_Vector_base.2444" = type { %"struct.std::_Vector_base<std::unique_ptr<clang::ModuleFileExtensionReader>, std::allocator<std::unique_ptr<clang::ModuleFileExtensionReader>>>::_Vector_impl" }
%"struct.std::_Vector_base<std::unique_ptr<clang::ModuleFileExtensionReader>, std::allocator<std::unique_ptr<clang::ModuleFileExtensionReader>>>::_Vector_impl" = type { %"struct.std::_Vector_base<std::unique_ptr<clang::ModuleFileExtensionReader>, std::allocator<std::unique_ptr<clang::ModuleFileExtensionReader>>>::_Vector_impl_data" }
%"struct.std::_Vector_base<std::unique_ptr<clang::ModuleFileExtensionReader>, std::allocator<std::unique_ptr<clang::ModuleFileExtensionReader>>>::_Vector_impl_data" = type { ptr, ptr, ptr }
%"class.std::vector.2448" = type { %"struct.std::_Vector_base.2449" }
%"struct.std::_Vector_base.2449" = type { %"struct.std::_Vector_base<clang::serialization::InputFile, std::allocator<clang::serialization::InputFile>>::_Vector_impl" }
%"struct.std::_Vector_base<clang::serialization::InputFile, std::allocator<clang::serialization::InputFile>>::_Vector_impl" = type { %"struct.std::_Vector_base<clang::serialization::InputFile, std::allocator<clang::serialization::InputFile>>::_Vector_impl_data" }
%"struct.std::_Vector_base<clang::serialization::InputFile, std::allocator<clang::serialization::InputFile>>::_Vector_impl_data" = type { ptr, ptr, ptr }
%"class.std::vector.2453" = type { %"struct.std::_Vector_base.2454" }
%"struct.std::_Vector_base.2454" = type { %"struct.std::_Vector_base<clang::serialization::InputFileInfo, std::allocator<clang::serialization::InputFileInfo>>::_Vector_impl" }
%"struct.std::_Vector_base<clang::serialization::InputFileInfo, std::allocator<clang::serialization::InputFileInfo>>::_Vector_impl" = type { %"struct.std::_Vector_base<clang::serialization::InputFileInfo, std::allocator<clang::serialization::InputFileInfo>>::_Vector_impl_data" }
%"struct.std::_Vector_base<clang::serialization::InputFileInfo, std::allocator<clang::serialization::InputFileInfo>>::_Vector_impl_data" = type { ptr, ptr, ptr }
%"class.clang::ContinuousRangeMap.2458" = type { %"class.llvm::SmallVector.2459" }
%"class.llvm::SmallVector.2459" = type { %"class.llvm::SmallVectorImpl.2460", %"struct.llvm::SmallVectorStorage.2463" }
%"class.llvm::SmallVectorImpl.2460" = type { %"class.llvm::SmallVectorTemplateBase.2461" }
%"class.llvm::SmallVectorTemplateBase.2461" = type { %"class.llvm::SmallVectorTemplateCommon.2462" }
%"class.llvm::SmallVectorTemplateCommon.2462" = type { %"class.llvm::SmallVectorBase" }
%"struct.llvm::SmallVectorStorage.2463" = type { [16 x i8] }
%"class.llvm::BitstreamCursor" = type { %"class.llvm::SimpleBitstreamCursor.base", i32, %"class.std::vector.1240", %"class.llvm::SmallVector.2438", ptr }
%"class.llvm::SimpleBitstreamCursor.base" = type <{ %"class.llvm::ArrayRef.2437", i64, i64, i32 }>
%"class.llvm::ArrayRef.2437" = type { ptr, i64 }
%"class.llvm::SmallVector.2438" = type { %"class.llvm::SmallVectorImpl.2439", %"struct.llvm::SmallVectorStorage.2442" }
%"class.llvm::SmallVectorImpl.2439" = type { %"class.llvm::SmallVectorTemplateBase.2440" }
%"class.llvm::SmallVectorTemplateBase.2440" = type { %"class.llvm::SmallVectorTemplateCommon.2441" }
%"class.llvm::SmallVectorTemplateCommon.2441" = type { %"class.llvm::SmallVectorBase" }
%"struct.llvm::SmallVectorStorage.2442" = type { [256 x i8] }
%"class.llvm::SetVector.2464" = type { %"class.llvm::DenseSet.2465", %"class.llvm::SmallVector.2470" }
%"class.llvm::DenseSet.2465" = type { %"class.llvm::detail::DenseSetImpl.2466" }
%"class.llvm::detail::DenseSetImpl.2466" = type { %"class.llvm::DenseMap.2467" }
%"class.llvm::DenseMap.2467" = type <{ ptr, i32, i32, i32, [4 x i8] }>
%"class.llvm::SmallVector.2470" = type { %"class.llvm::SmallVectorImpl.1827" }
%"class.llvm::SmallVector.2472" = type { %"class.llvm::SmallVectorImpl.1827", %"struct.llvm::SmallVectorStorage.2473" }
%"struct.llvm::SmallVectorStorage.2473" = type { [128 x i8] }
%class.anon.2646 = type { ptr }

; Function Attrs: mustprogress nounwind uwtable
define internal noundef zeroext i1 @"_ZZN5clang7ASTUnit10getPCHFileEvENK3$_0clERNS_13serialization10ModuleFileE"(ptr noundef nonnull align 8 dereferenceable(8) %0, ptr noundef nonnull align 8 dereferenceable(3464) %1) #0 align 2 {
  %3 = alloca i1, align 1
  %4 = alloca ptr, align 8
  %5 = alloca ptr, align 8
  store ptr %0, ptr %4, align 8
  store ptr %1, ptr %5, align 8
  %6 = load ptr, ptr %4, align 8
  %7 = load ptr, ptr %5, align 8
  %8 = getelementptr inbounds nuw %"class.clang::serialization::ModuleFile", ptr %7, i32 0, i32 1
  %9 = load i32, ptr %8, align 4
  switch i32 %9, label %17 [
    i32 0, label %10
    i32 1, label %10
    i32 5, label %10
    i32 2, label %11
    i32 3, label %15
    i32 4, label %16
  ]

10:                                               ; preds = %2, %2, %2
  store i1 true, ptr %3, align 1
  br label %18

11:                                               ; preds = %2
  %12 = load ptr, ptr %5, align 8
  %13 = getelementptr inbounds nuw %class.anon.2646, ptr %6, i32 0, i32 0
  %14 = load ptr, ptr %13, align 8
  store ptr %12, ptr %14, align 8
  store i1 true, ptr %3, align 1
  br label %18

15:                                               ; preds = %2
  store i1 false, ptr %3, align 1
  br label %18

16:                                               ; preds = %2
  store i1 false, ptr %3, align 1
  br label %18

17:                                               ; preds = %2
  store i1 true, ptr %3, align 1
  br label %18

18:                                               ; preds = %17, %16, %15, %11, %10
  %19 = load i1, ptr %3, align 1
  ret i1 %19
}

; Function Attrs: mustprogress nounwind uwtable
define internal noundef zeroext i1 @"_ZN4llvm12function_refIFbRN5clang13serialization10ModuleFileEEE11callback_fnIZNS1_7ASTUnit10getPCHFileEvE3$_0EEblS4_"(i64 noundef %0, ptr noundef nonnull align 8 dereferenceable(3464) %1) #0 align 2 {
  %3 = alloca i64, align 8
  %4 = alloca ptr, align 8
  store i64 %0, ptr %3, align 8
  store ptr %1, ptr %4, align 8
  %5 = load i64, ptr %3, align 8
  %6 = inttoptr i64 %5 to ptr
  %7 = load ptr, ptr %4, align 8
  %8 = call noundef zeroext i1 @"_ZZN5clang7ASTUnit10getPCHFileEvENK3$_0clERNS_13serialization10ModuleFileE"(ptr noundef nonnull align 8 dereferenceable(8) %6, ptr noundef nonnull align 8 dereferenceable(3464) %7)
  ret i1 %8
}