; Function Attrs: mustprogress nofree norecurse nosync nounwind willreturn memory(readwrite, inaccessiblemem: none) uwtable
define internal noundef zeroext i1 @"_ZN4llvm12function_refIFbRN5clang13serialization10ModuleFileEEE11callback_fnIZNS1_7ASTUnit10getPCHFileEvE3$_0EEblS4_"(i64 noundef %0, ptr noundef nonnull align 8 dereferenceable(3464) %1) #6 align 2 {
  %3 = getelementptr inbounds nuw i8, ptr %1, i64 4
  %4 = load i32, ptr %3, align 4
  switch i32 %4, label %7 [
    i32 4, label %"_ZZN5clang7ASTUnit10getPCHFileEvENK3$_0clERNS_13serialization10ModuleFileE.exit"
    i32 3, label %"_ZZN5clang7ASTUnit10getPCHFileEvENK3$_0clERNS_13serialization10ModuleFileE.exit"
    i32 2, label %5
  ]

5:                                                ; preds = %2
  %6 = inttoptr i64 %0 to ptr
  %.val = load ptr, ptr %6, align 8
  store ptr %1, ptr %.val, align 8
  br label %"_ZZN5clang7ASTUnit10getPCHFileEvENK3$_0clERNS_13serialization10ModuleFileE.exit"

7:                                                ; preds = %2
  br label %"_ZZN5clang7ASTUnit10getPCHFileEvENK3$_0clERNS_13serialization10ModuleFileE.exit"

"_ZZN5clang7ASTUnit10getPCHFileEvENK3$_0clERNS_13serialization10ModuleFileE.exit": ; preds = %2, %2, %5, %7
  %.0.i = phi i1 [ true, %7 ], [ true, %5 ], [ false, %2 ], [ false, %2 ]
  ret i1 %.0.i
}